target datalayout = "e-m:e-p270:32:32-p271:32:32-p272:64:64-i64:64-i128:128-f80:128-n8:16:32:64-S128"
target triple = "x86_64-pc-linux-gnu"

%"class.google::protobuf::internal::LogMessage" = type { i32, ptr, i32, %"class.std::__cxx11::basic_string" }
%"class.std::__cxx11::basic_string" = type { %"struct.std::__cxx11::basic_string<char>::_Alloc_hider", i64, %union.anon }
%"struct.std::__cxx11::basic_string<char>::_Alloc_hider" = type { ptr }
%union.anon = type { i64, [8 x i8] }
%"class.google::protobuf::internal::LogFinisher" = type { i8 }
%"class.google::protobuf::internal::EpsCopyInputStream" = type { ptr, ptr, ptr, i32, i32, ptr, [32 x i8], i64, i32, i32 }
%class.anon = type { i8 }

@.str.12 = private unnamed_addr constant [145 x i8] c"generated/home/dtcxzyw/WorkSpace/Projects/compilers/llvm-opt-benchmark/bench/opencv/opencv/3rdparty/protobuf/src/google/protobuf/parse_context.h\00", align 1
@.str.15 = private unnamed_addr constant [34 x i8] c"CHECK failed: size > chunk_size: \00", align 1

; Function Attrs: inlinehint mustprogress nounwind uwtable
define internal void @"_ZZN6google8protobuf8internal18EpsCopyInputStream12SkipFallbackEPKciENK3$_0clES4_i"(ptr noundef nonnull align 1 dereferenceable(1) %0, ptr noundef %1, i32 noundef %2) #8 align 2 {
  %4 = alloca ptr, align 8
  %5 = alloca ptr, align 8
  %6 = alloca i32, align 4
  store ptr %0, ptr %4, align 8, !tbaa !25
  store ptr %1, ptr %5, align 8, !tbaa !16
  store i32 %2, ptr %6, align 4, !tbaa !19
  ret void
}

; Function Attrs: mustprogress uwtable
define internal noundef ptr @"_ZN6google8protobuf8internal18EpsCopyInputStream10AppendSizeIZNS2_12SkipFallbackEPKciE3$_0EES5_S5_iRKT_"(ptr noundef nonnull align 8 dereferenceable(88) %0, ptr noundef %1, i32 noundef %2, ptr noundef nonnull align 1 dereferenceable(1) %3) #4 align 2 personality ptr @__gxx_personality_v0 {
  %5 = alloca ptr, align 8
  %6 = alloca ptr, align 8
  %7 = alloca ptr, align 8
  %8 = alloca i32, align 4
  %9 = alloca ptr, align 8
  %10 = alloca i32, align 4
  %11 = alloca %"class.google::protobuf::internal::LogMessage", align 8
  %12 = alloca i1, align 1
  %13 = alloca i1, align 1
  %14 = alloca ptr, align 8
  %15 = alloca i32, align 4
  %16 = alloca %"class.google::protobuf::internal::LogFinisher", align 1
  %17 = alloca i32, align 4
  store ptr %0, ptr %6, align 8, !tbaa !3
  store ptr %1, ptr %7, align 8, !tbaa !16
  store i32 %2, ptr %8, align 4, !tbaa !19
  store ptr %3, ptr %9, align 8, !tbaa !25
  %18 = load ptr, ptr %6, align 8
  call void @llvm.lifetime.start.p0(i64 4, ptr %10) #3
  %19 = getelementptr inbounds nuw %"class.google::protobuf::internal::EpsCopyInputStream", ptr %18, i32 0, i32 1
  %20 = load ptr, ptr %19, align 8, !tbaa !17
  %21 = getelementptr inbounds i8, ptr %20, i64 16
  %22 = load ptr, ptr %7, align 8, !tbaa !16
  %23 = ptrtoint ptr %21 to i64
  %24 = ptrtoint ptr %22 to i64
  %25 = sub i64 %23, %24
  %26 = trunc i64 %25 to i32
  store i32 %26, ptr %10, align 4, !tbaa !19
  br label %27

27:                                               ; preds = %96, %4
  br label %28

28:                                               ; preds = %44, %27
  br i1 false, label %29, label %60

29:                                               ; preds = %28
  %30 = load i32, ptr %8, align 4, !tbaa !19
  %31 = load i32, ptr %10, align 4, !tbaa !19
  %32 = icmp sgt i32 %30, %31
  store i1 false, ptr %12, align 1
  store i1 false, ptr %13, align 1
  call void @llvm.lifetime.start.p0(i64 1, ptr %16) #3
  br i1 %32, label %33, label %34

33:                                               ; preds = %29
  br label %38

34:                                               ; preds = %29
  call void @llvm.lifetime.start.p0(i64 56, ptr %11) #3
  store i1 true, ptr %12, align 1
  call void @_ZN6google8protobuf8internal10LogMessageC1ENS0_8LogLevelEPKci(ptr noundef nonnull align 8 dereferenceable(56) %11, i32 noundef 3, ptr noundef @.str.12, i32 noundef 326)
  store i1 true, ptr %13, align 1
  %35 = invoke noundef nonnull align 8 dereferenceable(56) ptr @_ZN6google8protobuf8internal10LogMessagelsEPKc(ptr noundef nonnull align 8 dereferenceable(56) %11, ptr noundef @.str.15)
          to label %36 unwind label %45

36:                                               ; preds = %34
  invoke void @_ZN6google8protobuf8internal11LogFinisheraSERNS1_10LogMessageE(ptr noundef nonnull align 1 dereferenceable(1) %16, ptr noundef nonnull align 8 dereferenceable(56) %35)
          to label %37 unwind label %49

37:                                               ; preds = %36
  br label %38

38:                                               ; preds = %37, %33
  call void @llvm.lifetime.end.p0(i64 1, ptr %16) #3
  %39 = load i1, ptr %13, align 1
  br i1 %39, label %40, label %41

40:                                               ; preds = %38
  call void @_ZN6google8protobuf8internal10LogMessageD1Ev(ptr noundef nonnull align 8 dereferenceable(56) %11) #3
  br label %41

41:                                               ; preds = %40, %38
  %42 = load i1, ptr %12, align 1
  br i1 %42, label %43, label %44

43:                                               ; preds = %41
  call void @llvm.lifetime.end.p0(i64 56, ptr %11) #3
  br label %44

44:                                               ; preds = %43, %41
  br label %28, !llvm.loop !57

45:                                               ; preds = %34
  %46 = landingpad { ptr, i32 }
          cleanup
  %47 = extractvalue { ptr, i32 } %46, 0
  store ptr %47, ptr %14, align 8
  %48 = extractvalue { ptr, i32 } %46, 1
  store i32 %48, ptr %15, align 4
  br label %53

49:                                               ; preds = %36
  %50 = landingpad { ptr, i32 }
          cleanup
  %51 = extractvalue { ptr, i32 } %50, 0
  store ptr %51, ptr %14, align 8
  %52 = extractvalue { ptr, i32 } %50, 1
  store i32 %52, ptr %15, align 4
  call void @llvm.lifetime.end.p0(i64 1, ptr %16) #3
  br label %53

53:                                               ; preds = %49, %45
  %54 = load i1, ptr %13, align 1
  br i1 %54, label %55, label %56

55:                                               ; preds = %53
  call void @_ZN6google8protobuf8internal10LogMessageD1Ev(ptr noundef nonnull align 8 dereferenceable(56) %11) #3
  br label %56

56:                                               ; preds = %55, %53
  %57 = load i1, ptr %12, align 1
  br i1 %57, label %58, label %59

58:                                               ; preds = %56
  call void @llvm.lifetime.end.p0(i64 56, ptr %11) #3
  br label %59

59:                                               ; preds = %58, %56
  call void @llvm.lifetime.end.p0(i64 4, ptr %10) #3
  br label %110

60:                                               ; preds = %28
  %61 = getelementptr inbounds nuw %"class.google::protobuf::internal::EpsCopyInputStream", ptr %18, i32 0, i32 2
  %62 = load ptr, ptr %61, align 8, !tbaa !20
  %63 = icmp eq ptr %62, null
  br i1 %63, label %64, label %65

64:                                               ; preds = %60
  store ptr null, ptr %5, align 8
  store i32 1, ptr %17, align 4
  br label %108

65:                                               ; preds = %60
  %66 = load ptr, ptr %9, align 8, !tbaa !25
  %67 = load ptr, ptr %7, align 8, !tbaa !16
  %68 = load i32, ptr %10, align 4, !tbaa !19
  call void @"_ZZN6google8protobuf8internal18EpsCopyInputStream12SkipFallbackEPKciENK3$_0clES4_i"(ptr noundef nonnull align 1 dereferenceable(1) %66, ptr noundef %67, i32 noundef %68)
  %69 = load i32, ptr %10, align 4, !tbaa !19
  %70 = load ptr, ptr %7, align 8, !tbaa !16
  %71 = sext i32 %69 to i64
  %72 = getelementptr inbounds i8, ptr %70, i64 %71
  store ptr %72, ptr %7, align 8, !tbaa !16
  %73 = load i32, ptr %10, align 4, !tbaa !19
  %74 = load i32, ptr %8, align 4, !tbaa !19
  %75 = sub nsw i32 %74, %73
  store i32 %75, ptr %8, align 4, !tbaa !19
  %76 = getelementptr inbounds nuw %"class.google::protobuf::internal::EpsCopyInputStream", ptr %18, i32 0, i32 4
  %77 = load i32, ptr %76, align 4, !tbaa !8
  %78 = icmp sle i32 %77, 16
  br i1 %78, label %79, label %80

79:                                               ; preds = %65
  store ptr null, ptr %5, align 8
  store i32 1, ptr %17, align 4
  br label %108

80:                                               ; preds = %65
  %81 = call noundef ptr @_ZN6google8protobuf8internal18EpsCopyInputStream4NextEv(ptr noundef nonnull align 8 dereferenceable(88) %18)
  store ptr %81, ptr %7, align 8, !tbaa !16
  %82 = load ptr, ptr %7, align 8, !tbaa !16
  %83 = icmp eq ptr %82, null
  br i1 %83, label %84, label %85

84:                                               ; preds = %80
  store ptr null, ptr %5, align 8
  store i32 1, ptr %17, align 4
  br label %108

85:                                               ; preds = %80
  %86 = load ptr, ptr %7, align 8, !tbaa !16
  %87 = getelementptr inbounds i8, ptr %86, i64 16
  store ptr %87, ptr %7, align 8, !tbaa !16
  %88 = getelementptr inbounds nuw %"class.google::protobuf::internal::EpsCopyInputStream", ptr %18, i32 0, i32 1
  %89 = load ptr, ptr %88, align 8, !tbaa !17
  %90 = getelementptr inbounds i8, ptr %89, i64 16
  %91 = load ptr, ptr %7, align 8, !tbaa !16
  %92 = ptrtoint ptr %90 to i64
  %93 = ptrtoint ptr %91 to i64
  %94 = sub i64 %92, %93
  %95 = trunc i64 %94 to i32
  store i32 %95, ptr %10, align 4, !tbaa !19
  br label %96

96:                                               ; preds = %85
  %97 = load i32, ptr %8, align 4, !tbaa !19
  %98 = load i32, ptr %10, align 4, !tbaa !19
  %99 = icmp sgt i32 %97, %98
  br i1 %99, label %27, label %100, !llvm.loop !58

100:                                              ; preds = %96
  %101 = load ptr, ptr %9, align 8, !tbaa !25
  %102 = load ptr, ptr %7, align 8, !tbaa !16
  %103 = load i32, ptr %8, align 4, !tbaa !19
  call void @"_ZZN6google8protobuf8internal18EpsCopyInputStream12SkipFallbackEPKciENK3$_0clES4_i"(ptr noundef nonnull align 1 dereferenceable(1) %101, ptr noundef %102, i32 noundef %103)
  %104 = load ptr, ptr %7, align 8, !tbaa !16
  %105 = load i32, ptr %8, align 4, !tbaa !19
  %106 = sext i32 %105 to i64
  %107 = getelementptr inbounds i8, ptr %104, i64 %106
  store ptr %107, ptr %5, align 8
  store i32 1, ptr %17, align 4
  br label %108

108:                                              ; preds = %100, %84, %79, %64
  call void @llvm.lifetime.end.p0(i64 4, ptr %10) #3
  %109 = load ptr, ptr %5, align 8
  ret ptr %109

110:                                              ; preds = %59
  %111 = load ptr, ptr %14, align 8
  %112 = load i32, ptr %15, align 4
  %113 = insertvalue { ptr, i32 } poison, ptr %111, 0
  %114 = insertvalue { ptr, i32 } %113, i32 %112, 1
  resume { ptr, i32 } %114
}

; Function Attrs: mustprogress uwtable
define hidden noundef ptr @_ZN6google8protobuf8internal18EpsCopyInputStream12SkipFallbackEPKci(ptr noundef nonnull align 8 dereferenceable(88) %0, ptr noundef %1, i32 noundef %2) #4 align 2 {
  %4 = alloca ptr, align 8
  %5 = alloca ptr, align 8
  %6 = alloca i32, align 4
  %7 = alloca %class.anon, align 1
  store ptr %0, ptr %4, align 8, !tbaa !3
  store ptr %1, ptr %5, align 8, !tbaa !16
  store i32 %2, ptr %6, align 4, !tbaa !19
  %8 = load ptr, ptr %4, align 8
  %9 = load ptr, ptr %5, align 8, !tbaa !16
  %10 = load i32, ptr %6, align 4, !tbaa !19
  call void @llvm.lifetime.start.p0(i64 1, ptr %7) #3
  %11 = call noundef ptr @"_ZN6google8protobuf8internal18EpsCopyInputStream10AppendSizeIZNS2_12SkipFallbackEPKciE3$_0EES5_S5_iRKT_"(ptr noundef nonnull align 8 dereferenceable(88) %8, ptr noundef %9, i32 noundef %10, ptr noundef nonnull align 1 dereferenceable(1) %7)
  call void @llvm.lifetime.end.p0(i64 1, ptr %7) #3
  ret ptr %11
}